# SymbolsHelper-Confirmed: 5.92.0 amd64 arm64 armhf ppc64el s390x
libKF5KIOGui.so.5 libkf5kiogui5 #MINVER#
* Build-Depends-Package: libkf5kio-dev
 _ZN13KIOGuiPrivate18checkStartupNotifyEPK8KServicePbP10QByteArray@Base 5.69.0
 _ZN14KProcessRunner11fromCommandERK7QStringS2_S2_S2_RK10QByteArrayS2_RK19QProcessEnvironment@Base 5.82.0
 _ZN14KProcessRunner11qt_metacallEN11QMetaObject4CallEiPPv@Base 5.69.0
 _ZN14KProcessRunner11qt_metacastEPKc@Base 5.69.0
 _ZN14KProcessRunner13instanceCountEv@Base 5.69.0
 _ZN14KProcessRunner14fromExecutableERK7QStringRK11QStringListS2_S2_RK10QByteArrayS2_RK19QProcessEnvironment@Base 5.86.0
 _ZN14KProcessRunner14processStartedEx@Base 5.74.0
 _ZN14KProcessRunner15fromApplicationERK28QExplicitlySharedDataPointerI8KServiceERK7QStringRK5QListI4QUrlE6QFlagsIN3KIO22ApplicationLauncherJob7RunFlagEES7_RK10QByteArray@Base 5.80.0
 _ZN14KProcessRunner16emitDelayedErrorERK7QString@Base 5.69.0
 _ZN14KProcessRunner16staticMetaObjectE@Base 5.69.0
 _ZN14KProcessRunner19initFromDesktopNameERK7QStringS2_S2_RK10QByteArrayS2_RK19QProcessEnvironment@Base 5.86.0
 _ZN14KProcessRunner25xdgActivationTokenArrivedEv@Base 5.83.0
 _ZN14KProcessRunner28terminateStartupNotificationEv@Base 5.69.0
 _ZN14KProcessRunner4initERK28QExplicitlySharedDataPointerI8KServiceERK7QStringS7_S7_RK10QByteArray@Base 5.80.0
 _ZN14KProcessRunner5errorERK7QString@Base 5.69.0
 _ZN14KProcessRunner6setPidEx@Base 5.74.0
 _ZN14KProcessRunnerC1Ev@Base 5.74.0
 _ZN14KProcessRunnerC2Ev@Base 5.74.0
 _ZN14KProcessRunnerD0Ev@Base 5.69.0
 _ZN14KProcessRunnerD1Ev@Base 5.69.0
 _ZN14KProcessRunnerD2Ev@Base 5.69.0
 _ZN20KTerminalLauncherJob11qt_metacallEN11QMetaObject4CallEiPPv@Base 5.83.0
 _ZN20KTerminalLauncherJob11qt_metacastEPKc@Base 5.83.0
 _ZN20KTerminalLauncherJob12setStartupIdERK10QByteArray@Base 5.83.0
 _ZN20KTerminalLauncherJob16staticMetaObjectE@Base 5.83.0
 _ZN20KTerminalLauncherJob17emitDelayedResultEv@Base 5.83.0
 _ZN20KTerminalLauncherJob19setWorkingDirectoryERK7QString@Base 5.83.0
 _ZN20KTerminalLauncherJob20determineFullCommandEb@Base 5.90.0
 _ZN20KTerminalLauncherJob21setProcessEnvironmentERK19QProcessEnvironment@Base 5.83.0
 _ZN20KTerminalLauncherJob5startEv@Base 5.83.0
 _ZN20KTerminalLauncherJobC1ERK7QStringP7QObject@Base 5.83.0
 _ZN20KTerminalLauncherJobC2ERK7QStringP7QObject@Base 5.83.0
 _ZN20KTerminalLauncherJobD0Ev@Base 5.83.0
 _ZN20KTerminalLauncherJobD1Ev@Base 5.83.0
 _ZN20KTerminalLauncherJobD2Ev@Base 5.83.0
 _ZN23KEMailClientLauncherJob10setSubjectERK7QString@Base 5.87.0
 _ZN23KEMailClientLauncherJob11qt_metacallEN11QMetaObject4CallEiPPv@Base 5.87.0
 _ZN23KEMailClientLauncherJob11qt_metacastEPKc@Base 5.87.0
 _ZN23KEMailClientLauncherJob12setStartupIdERK10QByteArray@Base 5.87.0
 _ZN23KEMailClientLauncherJob14setAttachmentsERK5QListI4QUrlE@Base 5.87.0
 _ZN23KEMailClientLauncherJob16staticMetaObjectE@Base 5.87.0
 _ZN23KEMailClientLauncherJob17emitDelayedResultEv@Base 5.87.0
 _ZN23KEMailClientLauncherJob5setCcERK11QStringList@Base 5.87.0
 _ZN23KEMailClientLauncherJob5setToERK11QStringList@Base 5.87.0
 _ZN23KEMailClientLauncherJob5startEv@Base 5.87.0
 _ZN23KEMailClientLauncherJob7setBodyERK7QString@Base 5.87.0
 _ZN23KEMailClientLauncherJobC1EP7QObject@Base 5.87.0
 _ZN23KEMailClientLauncherJobC2EP7QObject@Base 5.87.0
 _ZN23KEMailClientLauncherJobD0Ev@Base 5.87.0
 _ZN23KEMailClientLauncherJobD1Ev@Base 5.87.0
 _ZN23KEMailClientLauncherJobD2Ev@Base 5.87.0
 _ZN3KIO10OpenUrlJob10slotResultEP4KJob@Base 5.71.0
 _ZN3KIO10OpenUrlJob11qt_metacallEN11QMetaObject4CallEiPPv@Base 5.71.0
 _ZN3KIO10OpenUrlJob11qt_metacastEPKc@Base 5.71.0
 _ZN3KIO10OpenUrlJob12setStartupIdERK10QByteArray@Base 5.71.0
 _ZN3KIO10OpenUrlJob13mimeTypeFoundERK7QString@Base 5.71.0
 _ZN3KIO10OpenUrlJob16staticMetaObjectE@Base 5.71.0
 _ZN3KIO10OpenUrlJob17setRunExecutablesEb@Base 5.71.0
 _ZN3KIO10OpenUrlJob20setSuggestedFileNameERK7QString@Base 5.71.0
 _ZN3KIO10OpenUrlJob21setFollowRedirectionsEb@Base 5.71.0
 _ZN3KIO10OpenUrlJob22setDeleteTemporaryFileEb@Base 5.71.0
 _ZN3KIO10OpenUrlJob24setEnableExternalBrowserEb@Base 5.71.0
 _ZN3KIO10OpenUrlJob26setShowOpenOrExecuteDialogEb@Base 5.73.0
 _ZN3KIO10OpenUrlJob5startEv@Base 5.71.0
 _ZN3KIO10OpenUrlJob6doKillEv@Base 5.71.0
 _ZN3KIO10OpenUrlJobC1ERK4QUrlP7QObject@Base 5.71.0
 _ZN3KIO10OpenUrlJobC1ERK4QUrlRK7QStringP7QObject@Base 5.71.0
 _ZN3KIO10OpenUrlJobC2ERK4QUrlP7QObject@Base 5.71.0
 _ZN3KIO10OpenUrlJobC2ERK4QUrlRK7QStringP7QObject@Base 5.71.0
 _ZN3KIO10OpenUrlJobD0Ev@Base 5.71.0
 _ZN3KIO10OpenUrlJobD1Ev@Base 5.71.0
 _ZN3KIO10OpenUrlJobD2Ev@Base 5.71.0
 _ZN3KIO17FavIconRequestJob10setIconUrlERK4QUrl@Base 5.69.0
 _ZN3KIO17FavIconRequestJob10slotResultEP4KJob@Base 5.69.0
 _ZN3KIO17FavIconRequestJob11qt_metacallEN11QMetaObject4CallEiPPv@Base 5.69.0
 _ZN3KIO17FavIconRequestJob11qt_metacastEPKc@Base 5.69.0
 _ZN3KIO17FavIconRequestJob16staticMetaObjectE@Base 5.69.0
 _ZN3KIO17FavIconRequestJob7doStartEv@Base 5.69.0
 _ZN3KIO17FavIconRequestJobC1ERK4QUrlNS_8LoadTypeEP7QObject@Base 5.69.0
 _ZN3KIO17FavIconRequestJobC2ERK4QUrlNS_8LoadTypeEP7QObject@Base 5.69.0
 _ZN3KIO17FavIconRequestJobD0Ev@Base 5.69.0
 _ZN3KIO17FavIconRequestJobD1Ev@Base 5.69.0
 _ZN3KIO17FavIconRequestJobD2Ev@Base 5.69.0
 _ZN3KIO18CommandLauncherJob10setCommandERK7QString@Base 5.83.0
 _ZN3KIO18CommandLauncherJob12setStartupIdERK10QByteArray@Base 5.69.0
 _ZN3KIO18CommandLauncherJob13setExecutableERK7QString@Base 5.69.0
 _ZN3KIO18CommandLauncherJob14setDesktopNameERK7QString@Base 5.69.0
 _ZN3KIO18CommandLauncherJob14waitForStartedEv@Base 5.69.0
 _ZN3KIO18CommandLauncherJob19setWorkingDirectoryERK7QString@Base 5.69.0
 _ZN3KIO18CommandLauncherJob21setProcessEnvironmentERK19QProcessEnvironment@Base 5.82.0
 _ZN3KIO18CommandLauncherJob5startEv@Base 5.69.0
 _ZN3KIO18CommandLauncherJob7setIconERK7QString@Base 5.69.0
 _ZN3KIO18CommandLauncherJobC1ERK7QStringP7QObject@Base 5.69.0
 _ZN3KIO18CommandLauncherJobC1ERK7QStringRK11QStringListP7QObject@Base 5.69.0
 _ZN3KIO18CommandLauncherJobC2ERK7QStringP7QObject@Base 5.69.0
 _ZN3KIO18CommandLauncherJobC2ERK7QStringRK11QStringListP7QObject@Base 5.69.0
 _ZN3KIO18CommandLauncherJobD0Ev@Base 5.69.0
 _ZN3KIO18CommandLauncherJobD1Ev@Base 5.69.0
 _ZN3KIO18CommandLauncherJobD2Ev@Base 5.69.0
 _ZN3KIO22ApplicationLauncherJob11setRunFlagsE6QFlagsINS0_7RunFlagEE@Base 5.69.0
 _ZN3KIO22ApplicationLauncherJob12setStartupIdERK10QByteArray@Base 5.69.0
 _ZN3KIO22ApplicationLauncherJob14waitForStartedEv@Base 5.69.0
 _ZN3KIO22ApplicationLauncherJob20setSuggestedFileNameERK7QString@Base 5.69.0
 _ZN3KIO22ApplicationLauncherJob21emitUnauthorizedErrorEv@Base 5.70.0
 _ZN3KIO22ApplicationLauncherJob26proceedAfterSecurityChecksEv@Base 5.70.0
 _ZN3KIO22ApplicationLauncherJob5startEv@Base 5.69.0
 _ZN3KIO22ApplicationLauncherJob7setUrlsERK5QListI4QUrlE@Base 5.69.0
 _ZN3KIO22ApplicationLauncherJobC1EP7QObject@Base 5.71.0
 _ZN3KIO22ApplicationLauncherJobC1ERK14KServiceActionP7QObject@Base 5.69.0
 _ZN3KIO22ApplicationLauncherJobC1ERK28QExplicitlySharedDataPointerI8KServiceEP7QObject@Base 5.69.0
 _ZN3KIO22ApplicationLauncherJobC2EP7QObject@Base 5.71.0
 _ZN3KIO22ApplicationLauncherJobC2ERK14KServiceActionP7QObject@Base 5.69.0
 _ZN3KIO22ApplicationLauncherJobC2ERK28QExplicitlySharedDataPointerI8KServiceEP7QObject@Base 5.69.0
 _ZN3KIO22ApplicationLauncherJobD0Ev@Base 5.69.0
 _ZN3KIO22ApplicationLauncherJobD1Ev@Base 5.69.0
 _ZN3KIO22ApplicationLauncherJobD2Ev@Base 5.69.0
 _ZN3KIO24OpenWithHandlerInterface11qt_metacallEN11QMetaObject4CallEiPPv@Base 5.71.0
 _ZN3KIO24OpenWithHandlerInterface11qt_metacastEPKc@Base 5.71.0
 _ZN3KIO24OpenWithHandlerInterface15serviceSelectedERK28QExplicitlySharedDataPointerI8KServiceE@Base 5.71.0
 _ZN3KIO24OpenWithHandlerInterface16staticMetaObjectE@Base 5.71.0
 _ZN3KIO24OpenWithHandlerInterface24promptUserForApplicationEP4KJobRK5QListI4QUrlERK7QString@Base 5.71.0
 _ZN3KIO24OpenWithHandlerInterface7handledEv@Base 5.71.0
 _ZN3KIO24OpenWithHandlerInterface8canceledEv@Base 5.71.0
 _ZN3KIO24OpenWithHandlerInterfaceC1EP7QObject@Base 5.78.0
 _ZN3KIO24OpenWithHandlerInterfaceC2EP7QObject@Base 5.78.0
 _ZN3KIO24OpenWithHandlerInterfaceD0Ev@Base 5.71.0
 _ZN3KIO24OpenWithHandlerInterfaceD1Ev@Base 5.71.0
 _ZN3KIO24OpenWithHandlerInterfaceD2Ev@Base 5.71.0
 _ZN3KIO26OpenOrExecuteFileInterface11executeFileEb@Base 5.73.0
 _ZN3KIO26OpenOrExecuteFileInterface11qt_metacallEN11QMetaObject4CallEiPPv@Base 5.73.0
 _ZN3KIO26OpenOrExecuteFileInterface11qt_metacastEPKc@Base 5.73.0
 _ZN3KIO26OpenOrExecuteFileInterface16staticMetaObjectE@Base 5.73.0
 _ZN3KIO26OpenOrExecuteFileInterface23promptUserOpenOrExecuteEP4KJobRK7QString@Base 5.73.0
 _ZN3KIO26OpenOrExecuteFileInterface8canceledEv@Base 5.73.0
 _ZN3KIO26OpenOrExecuteFileInterfaceC1EP7QObject@Base 5.78.0
 _ZN3KIO26OpenOrExecuteFileInterfaceC2EP7QObject@Base 5.78.0
 _ZN3KIO26OpenOrExecuteFileInterfaceD0Ev@Base 5.73.0
 _ZN3KIO26OpenOrExecuteFileInterfaceD1Ev@Base 5.73.0
 _ZN3KIO26OpenOrExecuteFileInterfaceD2Ev@Base 5.73.0
 _ZNK14KProcessRunner10metaObjectEv@Base 5.69.0
 _ZNK14KProcessRunner4nameEv@Base 5.74.0
 _ZNK20KTerminalLauncherJob10metaObjectEv@Base 5.83.0
 _ZNK20KTerminalLauncherJob11fullCommandEv@Base 5.83.0
 _ZNK23KEMailClientLauncherJob10metaObjectEv@Base 5.87.0
 _ZNK23KEMailClientLauncherJob20thunderbirdArgumentsEv@Base 5.87.0
 _ZNK23KEMailClientLauncherJob9mailToUrlEv@Base 5.87.0
 _ZNK3KIO10OpenUrlJob10metaObjectEv@Base 5.71.0
 _ZNK3KIO17FavIconRequestJob10metaObjectEv@Base 5.69.0
 _ZNK3KIO17FavIconRequestJob7hostUrlEv@Base 5.69.0
 _ZNK3KIO17FavIconRequestJob8iconFileEv@Base 5.69.0
 _ZNK3KIO18CommandLauncherJob16workingDirectoryEv@Base 5.83.0
 _ZNK3KIO18CommandLauncherJob3pidEv@Base 5.69.0
 _ZNK3KIO18CommandLauncherJob7commandEv@Base 5.83.0
 _ZNK3KIO22ApplicationLauncherJob3pidEv@Base 5.69.0
 _ZNK3KIO22ApplicationLauncherJob4pidsEv@Base 5.69.0
 _ZNK3KIO24OpenWithHandlerInterface10metaObjectEv@Base 5.71.0
 _ZNK3KIO26OpenOrExecuteFileInterface10metaObjectEv@Base 5.73.0
 _ZTI14KProcessRunner@Base 5.69.0
 _ZTI20KTerminalLauncherJob@Base 5.83.0
 _ZTI23KEMailClientLauncherJob@Base 5.87.0
 _ZTIN3KIO10OpenUrlJobE@Base 5.71.0
 _ZTIN3KIO17FavIconRequestJobE@Base 5.69.0
 _ZTIN3KIO18CommandLauncherJobE@Base 5.69.0
 _ZTIN3KIO22ApplicationLauncherJobE@Base 5.69.0
 _ZTIN3KIO24OpenWithHandlerInterfaceE@Base 5.71.0
 _ZTIN3KIO26OpenOrExecuteFileInterfaceE@Base 5.73.0
 _ZTS14KProcessRunner@Base 5.69.0
 _ZTS20KTerminalLauncherJob@Base 5.83.0
 _ZTS23KEMailClientLauncherJob@Base 5.87.0
 _ZTSN3KIO10OpenUrlJobE@Base 5.71.0
 _ZTSN3KIO17FavIconRequestJobE@Base 5.69.0
 _ZTSN3KIO18CommandLauncherJobE@Base 5.69.0
 _ZTSN3KIO22ApplicationLauncherJobE@Base 5.69.0
 _ZTSN3KIO24OpenWithHandlerInterfaceE@Base 5.71.0
 _ZTSN3KIO26OpenOrExecuteFileInterfaceE@Base 5.73.0
 _ZTV14KProcessRunner@Base 5.69.0
 _ZTV20KTerminalLauncherJob@Base 5.83.0
 _ZTV23KEMailClientLauncherJob@Base 5.87.0
 _ZTVN3KIO10OpenUrlJobE@Base 5.71.0
 _ZTVN3KIO17FavIconRequestJobE@Base 5.69.0
 _ZTVN3KIO18CommandLauncherJobE@Base 5.69.0
 _ZTVN3KIO22ApplicationLauncherJobE@Base 5.69.0
 _ZTVN3KIO24OpenWithHandlerInterfaceE@Base 5.71.0
 _ZTVN3KIO26OpenOrExecuteFileInterfaceE@Base 5.73.0
 openurljob_force_use_browserapp_kdeglobals@Base 5.92.0
